target datalayout = "e-m:e-p270:32:32-p271:32:32-p272:64:64-i64:64-i128:128-f80:128-n8:16:32:64-S128"
target triple = "x86_64-pc-linux-gnu"

%struct._value_string_ext = type { ptr, i32, i32, ptr, ptr }
%struct._drda_pdu_info_t = type { i32, i32, i32, i32 }

@hf_drda_param_codepoint = internal global i32 0, align 4
@hf_drda_ccsid = internal global i32 0, align 4
@hf_drda_mgrlvln = internal global i32 0, align 4
@ett_drda_param = internal global i32 0, align 4
@.str.828 = private unnamed_addr constant [6 x i8] c" (%s)\00", align 1
@drda_opcode_vals_ext = internal global %struct._value_string_ext { ptr @_try_val_to_str_ext_init, i32 0, i32 201, ptr @drda_opcode_vals, ptr @.str.832 }, align 8
@.str.829 = private unnamed_addr constant [17 x i8] c"Unknown (0x%02x)\00", align 1
@.str.831 = private unnamed_addr constant [10 x i8] c"Parameter\00", align 1

; Function Attrs: null_pointer_is_valid sspstrong uwtable
define internal i32 @dissect_drda_mgrlvlls(ptr noundef %0, ptr noundef %1, ptr noundef %2, ptr noundef %3) #0 {
  %5 = alloca ptr, align 8
  %6 = alloca ptr, align 8
  %7 = alloca ptr, align 8
  %8 = alloca ptr, align 8
  %9 = alloca ptr, align 8
  %10 = alloca ptr, align 8
  %11 = alloca ptr, align 8
  %12 = alloca i32, align 4
  %13 = alloca i32, align 4
  %14 = alloca i16, align 2
  %15 = alloca i32, align 4
  store ptr %0, ptr %5, align 8
  store ptr %1, ptr %6, align 8
  store ptr %2, ptr %7, align 8
  store ptr %3, ptr %8, align 8
  call void @llvm.lifetime.start.p0(i64 8, ptr %9) #9
  call void @llvm.lifetime.start.p0(i64 8, ptr %10) #9
  call void @llvm.lifetime.start.p0(i64 8, ptr %11) #9
  %16 = load ptr, ptr %8, align 8
  store ptr %16, ptr %11, align 8
  call void @llvm.lifetime.start.p0(i64 4, ptr %12) #9
  store i32 0, ptr %12, align 4
  call void @llvm.lifetime.start.p0(i64 4, ptr %13) #9
  call void @llvm.lifetime.start.p0(i64 2, ptr %14) #9
  call void @llvm.lifetime.start.p0(i64 4, ptr %15) #9
  store i32 4, ptr %15, align 4
  br label %17

17:                                               ; preds = %67, %4
  %18 = load ptr, ptr %5, align 8
  %19 = load i32, ptr %12, align 4
  %20 = call i32 @tvb_reported_length_remaining(ptr noundef %18, i32 noundef %19)
  %21 = icmp sge i32 %20, 2
  br i1 %21, label %22, label %71

22:                                               ; preds = %17
  %23 = load ptr, ptr %5, align 8
  %24 = load i32, ptr %12, align 4
  %25 = call zeroext i16 @tvb_get_ntohs(ptr noundef %23, i32 noundef %24)
  store i16 %25, ptr %14, align 2
  %26 = load ptr, ptr %7, align 8
  %27 = load ptr, ptr %5, align 8
  %28 = load i32, ptr %12, align 4
  %29 = load i32, ptr %15, align 4
  %30 = load i32, ptr @ett_drda_param, align 4
  %31 = call ptr @proto_tree_add_subtree(ptr noundef %26, ptr noundef %27, i32 noundef %28, i32 noundef %29, i32 noundef %30, ptr noundef %10, ptr noundef @.str.831)
  store ptr %31, ptr %9, align 8
  %32 = load ptr, ptr %10, align 8
  %33 = load i16, ptr %14, align 2
  %34 = zext i16 %33 to i32
  %35 = call ptr @val_to_str_ext(i32 noundef %34, ptr noundef @drda_opcode_vals_ext, ptr noundef @.str.829)
  call void (ptr, ptr, ...) @proto_item_append_text(ptr noundef %32, ptr noundef @.str.828, ptr noundef %35)
  %36 = load ptr, ptr %9, align 8
  %37 = load i32, ptr @hf_drda_param_codepoint, align 4
  %38 = load ptr, ptr %5, align 8
  %39 = load i32, ptr %12, align 4
  %40 = call ptr @proto_tree_add_item(ptr noundef %36, i32 noundef %37, ptr noundef %38, i32 noundef %39, i32 noundef 2, i32 noundef 0)
  %41 = load i16, ptr %14, align 2
  %42 = zext i16 %41 to i32
  switch i32 %42, label %60 [
    i32 5324, label %43
    i32 7176, label %43
    i32 9223, label %50
  ]

43:                                               ; preds = %22, %22
  %44 = load ptr, ptr %9, align 8
  %45 = load i32, ptr @hf_drda_ccsid, align 4
  %46 = load ptr, ptr %5, align 8
  %47 = load i32, ptr %12, align 4
  %48 = add i32 %47, 2
  %49 = call ptr @proto_tree_add_item(ptr noundef %44, i32 noundef %45, ptr noundef %46, i32 noundef %48, i32 noundef 2, i32 noundef 0)
  br label %67

50:                                               ; preds = %22
  %51 = load ptr, ptr %9, align 8
  %52 = load i32, ptr @hf_drda_mgrlvln, align 4
  %53 = load ptr, ptr %5, align 8
  %54 = load i32, ptr %12, align 4
  %55 = add i32 %54, 2
  %56 = call ptr @proto_tree_add_item_ret_uint(ptr noundef %51, i32 noundef %52, ptr noundef %53, i32 noundef %55, i32 noundef 2, i32 noundef 0, ptr noundef %13)
  %57 = load i32, ptr %13, align 4
  %58 = load ptr, ptr %11, align 8
  %59 = getelementptr inbounds nuw %struct._drda_pdu_info_t, ptr %58, i32 0, i32 0
  store i32 %57, ptr %59, align 4
  br label %67

60:                                               ; preds = %22
  %61 = load ptr, ptr %9, align 8
  %62 = load i32, ptr @hf_drda_mgrlvln, align 4
  %63 = load ptr, ptr %5, align 8
  %64 = load i32, ptr %12, align 4
  %65 = add i32 %64, 2
  %66 = call ptr @proto_tree_add_item(ptr noundef %61, i32 noundef %62, ptr noundef %63, i32 noundef %65, i32 noundef 2, i32 noundef 0)
  br label %67

67:                                               ; preds = %60, %50, %43
  %68 = load i32, ptr %15, align 4
  %69 = load i32, ptr %12, align 4
  %70 = add i32 %69, %68
  store i32 %70, ptr %12, align 4
  br label %17, !llvm.loop !12

71:                                               ; preds = %17
  %72 = load ptr, ptr %5, align 8
  %73 = call i32 @tvb_captured_length(ptr noundef %72)
  call void @llvm.lifetime.end.p0(i64 4, ptr %15) #9
  call void @llvm.lifetime.end.p0(i64 2, ptr %14) #9
  call void @llvm.lifetime.end.p0(i64 4, ptr %13) #9
  call void @llvm.lifetime.end.p0(i64 4, ptr %12) #9
  call void @llvm.lifetime.end.p0(i64 8, ptr %11) #9
  call void @llvm.lifetime.end.p0(i64 8, ptr %10) #9
  call void @llvm.lifetime.end.p0(i64 8, ptr %9) #9
  ret i32 %73
}